target datalayout = "e-m:e-p270:32:32-p271:32:32-p272:64:64-i64:64-i128:128-f80:128-n8:16:32:64-S128"
target triple = "x86_64-pc-linux-gnu"

%struct.strbuf = type { i64, i64, ptr }
%struct.object_id = type { [32 x i8], i32 }
%struct.patch = type { ptr, ptr, ptr, i32, i32, i32, i32, i32, i32, i32, i32, i32, i32, i16, ptr, ptr, i64, [65 x i8], [65 x i8], ptr, [3 x %struct.object_id] }
%struct.stat = type { i64, i64, i64, i32, i32, i32, i32, i64, i64, i64, i64, %struct.timespec, %struct.timespec, %struct.timespec, [3 x i64] }
%struct.timespec = type { i64, i64 }

@.str.23 = private unnamed_addr constant [1 x i8] zeroinitializer, align 1
@git_gettext_enabled = external global i32, align 4
@.str.191 = private unnamed_addr constant [26 x i8] c"unable to read symlink %s\00", align 1
@.str.192 = private unnamed_addr constant [26 x i8] c"unable to open or read %s\00", align 1

; Function Attrs: inlinehint nounwind uwtable
define internal i32 @const_error() #3 {
  ret i32 -1
}

; Function Attrs: inlinehint nounwind uwtable
define internal ptr @_(ptr noundef %0) #3 {
  %2 = alloca ptr, align 8
  %3 = alloca ptr, align 8
  store ptr %0, ptr %3, align 8, !tbaa !11
  %4 = load ptr, ptr %3, align 8, !tbaa !11
  %5 = load i8, ptr %4, align 1, !tbaa !57
  %6 = icmp ne i8 %5, 0
  br i1 %6, label %8, label %7

7:                                                ; preds = %1
  store ptr @.str.23, ptr %2, align 8
  br label %16

8:                                                ; preds = %1
  %9 = load i32, ptr @git_gettext_enabled, align 4, !tbaa !39
  %10 = icmp ne i32 %9, 0
  br i1 %10, label %13, label %11

11:                                               ; preds = %8
  %12 = load ptr, ptr %3, align 8, !tbaa !11
  store ptr %12, ptr %2, align 8
  br label %16

13:                                               ; preds = %8
  %14 = load ptr, ptr %3, align 8, !tbaa !11
  %15 = call ptr @dcgettext(ptr noundef null, ptr noundef %14, i32 noundef 5) #12
  store ptr %15, ptr %2, align 8
  br label %16

16:                                               ; preds = %13, %11, %7
  %17 = load ptr, ptr %2, align 8
  ret ptr %17
}

; Function Attrs: nounwind uwtable
define internal i32 @read_old_data(ptr noundef %0, ptr noundef %1, ptr noundef %2, ptr noundef %3) #0 {
  %5 = alloca i32, align 4
  %6 = alloca ptr, align 8
  %7 = alloca ptr, align 8
  %8 = alloca ptr, align 8
  %9 = alloca ptr, align 8
  %10 = alloca i32, align 4
  %11 = alloca i32, align 4
  store ptr %0, ptr %6, align 8, !tbaa !241
  store ptr %1, ptr %7, align 8, !tbaa !60
  store ptr %2, ptr %8, align 8, !tbaa !11
  store ptr %3, ptr %9, align 8, !tbaa !75
  call void @llvm.lifetime.start.p0(i64 4, ptr %10) #12
  %12 = load ptr, ptr %7, align 8, !tbaa !60
  %13 = getelementptr inbounds nuw %struct.patch, ptr %12, i32 0, i32 13
  %14 = load i16, ptr %13, align 8
  %15 = lshr i16 %14, 8
  %16 = and i16 %15, 1
  %17 = zext i16 %16 to i32
  %18 = icmp ne i32 %17, 0
  %19 = select i1 %18, i32 8, i32 4
  store i32 %19, ptr %10, align 4, !tbaa !39
  %20 = load ptr, ptr %6, align 8, !tbaa !241
  %21 = getelementptr inbounds nuw %struct.stat, ptr %20, i32 0, i32 3
  %22 = load i32, ptr %21, align 8, !tbaa !244
  %23 = and i32 %22, 61440
  switch i32 %23, label %65 [
    i32 40960, label %24
    i32 32768, label %38
  ]

24:                                               ; preds = %4
  %25 = load ptr, ptr %9, align 8, !tbaa !75
  %26 = load ptr, ptr %8, align 8, !tbaa !11
  %27 = load ptr, ptr %6, align 8, !tbaa !241
  %28 = getelementptr inbounds nuw %struct.stat, ptr %27, i32 0, i32 8
  %29 = load i64, ptr %28, align 8, !tbaa !267
  %30 = call i32 @strbuf_readlink(ptr noundef %25, ptr noundef %26, i64 noundef %29)
  %31 = icmp slt i32 %30, 0
  br i1 %31, label %32, label %37

32:                                               ; preds = %24
  %33 = call ptr @_(ptr noundef @.str.191)
  %34 = load ptr, ptr %8, align 8, !tbaa !11
  %35 = call i32 (ptr, ...) @error(ptr noundef %33, ptr noundef %34)
  %36 = call i32 @const_error()
  store i32 %36, ptr %5, align 4
  store i32 1, ptr %11, align 4
  br label %66

37:                                               ; preds = %24
  store i32 0, ptr %5, align 4
  store i32 1, ptr %11, align 4
  br label %66

38:                                               ; preds = %4
  %39 = load ptr, ptr %9, align 8, !tbaa !75
  %40 = load ptr, ptr %8, align 8, !tbaa !11
  %41 = load ptr, ptr %6, align 8, !tbaa !241
  %42 = getelementptr inbounds nuw %struct.stat, ptr %41, i32 0, i32 8
  %43 = load i64, ptr %42, align 8, !tbaa !267
  %44 = call i64 @strbuf_read_file(ptr noundef %39, ptr noundef %40, i64 noundef %43)
  %45 = load ptr, ptr %6, align 8, !tbaa !241
  %46 = getelementptr inbounds nuw %struct.stat, ptr %45, i32 0, i32 8
  %47 = load i64, ptr %46, align 8, !tbaa !267
  %48 = icmp ne i64 %44, %47
  br i1 %48, label %49, label %54

49:                                               ; preds = %38
  %50 = call ptr @_(ptr noundef @.str.192)
  %51 = load ptr, ptr %8, align 8, !tbaa !11
  %52 = call i32 (ptr, ...) @error(ptr noundef %50, ptr noundef %51)
  %53 = call i32 @const_error()
  store i32 %53, ptr %5, align 4
  store i32 1, ptr %11, align 4
  br label %66

54:                                               ; preds = %38
  %55 = load ptr, ptr %8, align 8, !tbaa !11
  %56 = load ptr, ptr %9, align 8, !tbaa !75
  %57 = getelementptr inbounds nuw %struct.strbuf, ptr %56, i32 0, i32 2
  %58 = load ptr, ptr %57, align 8, !tbaa !82
  %59 = load ptr, ptr %9, align 8, !tbaa !75
  %60 = getelementptr inbounds nuw %struct.strbuf, ptr %59, i32 0, i32 1
  %61 = load i64, ptr %60, align 8, !tbaa !81
  %62 = load ptr, ptr %9, align 8, !tbaa !75
  %63 = load i32, ptr %10, align 4, !tbaa !39
  %64 = call i32 @convert_to_git(ptr noundef null, ptr noundef %55, ptr noundef %58, i64 noundef %61, ptr noundef %62, i32 noundef %63)
  store i32 0, ptr %5, align 4
  store i32 1, ptr %11, align 4
  br label %66

65:                                               ; preds = %4
  store i32 -1, ptr %5, align 4
  store i32 1, ptr %11, align 4
  br label %66

66:                                               ; preds = %65, %54, %49, %37, %32
  call void @llvm.lifetime.end.p0(i64 4, ptr %10) #12
  %67 = load i32, ptr %5, align 4
  ret i32 %67
}