; Function Attrs: nounwind uwtable
define internal fastcc range(i32 -1, 1) i32 @read_old_data(ptr noundef nonnull readonly captures(none) %0, i16 %.64.val, ptr noundef nonnull %1, ptr noundef nonnull %2) unnamed_addr #0 {
  %4 = and i16 %.64.val, 256
  %.not = icmp eq i16 %4, 0
  %5 = select i1 %.not, i32 4, i32 8
  %6 = getelementptr inbounds nuw i8, ptr %0, i64 24
  %7 = load i32, ptr %6, align 8, !tbaa !169
  %8 = trunc i32 %7 to i16
  %trunc = and i16 %8, -4096
  switch i16 %trunc, label %35 [
    i16 -24576, label %9
    i16 -32768, label %19
  ]

9:                                                ; preds = %3
  %10 = getelementptr inbounds nuw i8, ptr %0, i64 48
  %11 = load i64, ptr %10, align 8, !tbaa !257
  %12 = tail call i32 @strbuf_readlink(ptr noundef nonnull %2, ptr noundef nonnull %1, i64 noundef %11) #21
  %13 = icmp slt i32 %12, 0
  br i1 %13, label %14, label %35

14:                                               ; preds = %9
  %15 = load i32, ptr @git_gettext_enabled, align 4, !tbaa !34
  %.not4.i = icmp eq i32 %15, 0
  br i1 %.not4.i, label %_.exit, label %16

16:                                               ; preds = %14
  %17 = tail call ptr @dcgettext(ptr noundef null, ptr noundef nonnull @.str.191, i32 noundef 5) #21
  br label %_.exit

_.exit:                                           ; preds = %14, %16
  %.0.i = phi ptr [ %17, %16 ], [ @.str.191, %14 ]
  %18 = tail call i32 (ptr, ...) @error(ptr noundef %.0.i, ptr noundef nonnull %1) #21
  br label %35

19:                                               ; preds = %3
  %20 = getelementptr inbounds nuw i8, ptr %0, i64 48
  %21 = load i64, ptr %20, align 8, !tbaa !257
  %22 = tail call i64 @strbuf_read_file(ptr noundef nonnull %2, ptr noundef nonnull %1, i64 noundef %21) #21
  %23 = load i64, ptr %20, align 8, !tbaa !257
  %.not16 = icmp eq i64 %22, %23
  br i1 %.not16, label %29, label %24

24:                                               ; preds = %19
  %25 = load i32, ptr @git_gettext_enabled, align 4, !tbaa !34
  %.not4.i17 = icmp eq i32 %25, 0
  br i1 %.not4.i17, label %_.exit19, label %26

26:                                               ; preds = %24
  %27 = tail call ptr @dcgettext(ptr noundef null, ptr noundef nonnull @.str.192, i32 noundef 5) #21
  br label %_.exit19

_.exit19:                                         ; preds = %24, %26
  %.0.i18 = phi ptr [ %27, %26 ], [ @.str.192, %24 ]
  %28 = tail call i32 (ptr, ...) @error(ptr noundef %.0.i18, ptr noundef nonnull %1) #21
  br label %35

29:                                               ; preds = %19
  %30 = getelementptr inbounds nuw i8, ptr %2, i64 16
  %31 = load ptr, ptr %30, align 8, !tbaa !69
  %32 = getelementptr inbounds nuw i8, ptr %2, i64 8
  %33 = load i64, ptr %32, align 8, !tbaa !70
  %34 = tail call i32 @convert_to_git(ptr noundef null, ptr noundef nonnull %1, ptr noundef %31, i64 noundef %33, ptr noundef nonnull %2, i32 noundef %5) #21
  br label %35

35:                                               ; preds = %3, %9, %29, %_.exit19, %_.exit
  %.0 = phi i32 [ -1, %_.exit19 ], [ 0, %29 ], [ -1, %_.exit ], [ 0, %9 ], [ -1, %3 ]
  ret i32 %.0
}